; Function Attrs: inlinehint mustprogress nounwind uwtable
define internal void @_ZN7testing8internal24ParameterizedTestFactoryIN12_GLOBAL__N_124IdenticalTest_Block_TestEED2Ev(ptr noundef nonnull align 8 dereferenceable(88) initializes((0, 8)) %0) unnamed_addr #4 align 2 personality ptr @__gxx_personality_v0 {
  store ptr getelementptr inbounds nuw inrange(-16, 24) (i8, ptr @_ZTVN7testing8internal24ParameterizedTestFactoryIN12_GLOBAL__N_124IdenticalTest_Block_TestEEE, i64 16), ptr %0, align 8
  %2 = getelementptr inbounds nuw i8, ptr %0, i64 8
  %3 = getelementptr inbounds nuw i8, ptr %0, i64 48
  %4 = load ptr, ptr %3, align 8
  %5 = getelementptr inbounds nuw i8, ptr %0, i64 64
  %6 = icmp eq ptr %4, %5
  br i1 %6, label %_ZNKSt7__cxx1112basic_stringIcSt11char_traitsIcESaIcEE11_M_is_localEv.exit.thread.i.i.i, label %_ZNKSt7__cxx1112basic_stringIcSt11char_traitsIcESaIcEE11_M_is_localEv.exit.i.i.i

_ZNKSt7__cxx1112basic_stringIcSt11char_traitsIcESaIcEE11_M_is_localEv.exit.thread.i.i.i: ; preds = %1
  %7 = getelementptr inbounds nuw i8, ptr %0, i64 56
  %8 = load i64, ptr %7, align 8
  %9 = icmp ult i64 %8, 16
  tail call void @llvm.assume(i1 %9)
  br label %_ZNSt7__cxx1112basic_stringIcSt11char_traitsIcESaIcEED2Ev.exit.i

_ZNKSt7__cxx1112basic_stringIcSt11char_traitsIcESaIcEE11_M_is_localEv.exit.i.i.i: ; preds = %1
  tail call void @_ZdlPv(ptr noundef %4) #27
  br label %_ZNSt7__cxx1112basic_stringIcSt11char_traitsIcESaIcEED2Ev.exit.i

_ZNSt7__cxx1112basic_stringIcSt11char_traitsIcESaIcEED2Ev.exit.i: ; preds = %_ZNKSt7__cxx1112basic_stringIcSt11char_traitsIcESaIcEE11_M_is_localEv.exit.i.i.i, %_ZNKSt7__cxx1112basic_stringIcSt11char_traitsIcESaIcEE11_M_is_localEv.exit.thread.i.i.i
  %10 = load ptr, ptr %2, align 8
  %11 = getelementptr inbounds nuw i8, ptr %0, i64 24
  %12 = icmp eq ptr %10, %11
  br i1 %12, label %_ZNKSt7__cxx1112basic_stringIcSt11char_traitsIcESaIcEE11_M_is_localEv.exit.thread.i.i2.i, label %_ZNKSt7__cxx1112basic_stringIcSt11char_traitsIcESaIcEE11_M_is_localEv.exit.i.i1.i

_ZNKSt7__cxx1112basic_stringIcSt11char_traitsIcESaIcEE11_M_is_localEv.exit.thread.i.i2.i: ; preds = %_ZNSt7__cxx1112basic_stringIcSt11char_traitsIcESaIcEED2Ev.exit.i
  %13 = getelementptr inbounds nuw i8, ptr %0, i64 16
  %14 = load i64, ptr %13, align 8
  %15 = icmp ult i64 %14, 16
  tail call void @llvm.assume(i1 %15)
  br label %_ZN12_GLOBAL__N_111PatternInfoD2Ev.exit

_ZNKSt7__cxx1112basic_stringIcSt11char_traitsIcESaIcEE11_M_is_localEv.exit.i.i1.i: ; preds = %_ZNSt7__cxx1112basic_stringIcSt11char_traitsIcESaIcEED2Ev.exit.i
  tail call void @_ZdlPv(ptr noundef %10) #27
  br label %_ZN12_GLOBAL__N_111PatternInfoD2Ev.exit

_ZN12_GLOBAL__N_111PatternInfoD2Ev.exit:          ; preds = %_ZNKSt7__cxx1112basic_stringIcSt11char_traitsIcESaIcEE11_M_is_localEv.exit.thread.i.i2.i, %_ZNKSt7__cxx1112basic_stringIcSt11char_traitsIcESaIcEE11_M_is_localEv.exit.i.i1.i
  ret void
}